target datalayout = "e-m:e-p270:32:32-p271:32:32-p272:64:64-i64:64-i128:128-f80:128-n8:16:32:64-S128"
target triple = "x86_64-pc-linux-gnu"

%struct.RedisModuleKey = type { ptr, ptr, ptr, ptr, ptr, i32, %union.anon }
%union.anon = type { %struct.anon }
%struct.anon = type { %struct.listTypeEntry, i64 }
%struct.listTypeEntry = type { ptr, ptr, %struct.quicklistEntry }
%struct.quicklistEntry = type { ptr, ptr, ptr, ptr, i64, i64, i32 }
%struct.sdshdr8 = type { i8, i8, i8, [0 x i8] }
%struct.sdshdr16 = type <{ i16, i16, i8, [0 x i8] }>
%struct.sdshdr32 = type <{ i32, i32, i8, [0 x i8] }>
%struct.sdshdr64 = type <{ i64, i64, i8, [0 x i8] }>
%struct.ScanKeyCBData = type { ptr, ptr, ptr }

; Function Attrs: inlinehint nounwind uwtable
define internal i64 @sdslen(ptr noundef %0) #10 {
  %2 = alloca i64, align 8
  %3 = alloca ptr, align 8
  %4 = alloca i8, align 1
  %5 = alloca i32, align 4
  store ptr %0, ptr %3, align 8, !tbaa !11
  call void @llvm.lifetime.start.p0(i64 1, ptr %4) #15
  %6 = load ptr, ptr %3, align 8, !tbaa !11
  %7 = getelementptr inbounds i8, ptr %6, i64 -1
  %8 = load i8, ptr %7, align 1, !tbaa !72
  store i8 %8, ptr %4, align 1, !tbaa !72
  %9 = load i8, ptr %4, align 1, !tbaa !72
  %10 = zext i8 %9 to i32
  %11 = and i32 %10, 7
  switch i32 %11, label %40 [
    i32 0, label %12
    i32 1, label %17
    i32 2, label %23
    i32 3, label %29
    i32 4, label %35
  ]

12:                                               ; preds = %1
  %13 = load i8, ptr %4, align 1, !tbaa !72
  %14 = zext i8 %13 to i32
  %15 = ashr i32 %14, 3
  %16 = sext i32 %15 to i64
  store i64 %16, ptr %2, align 8
  store i32 1, ptr %5, align 4
  br label %41

17:                                               ; preds = %1
  %18 = load ptr, ptr %3, align 8, !tbaa !11
  %19 = getelementptr inbounds i8, ptr %18, i64 -3
  %20 = getelementptr inbounds nuw %struct.sdshdr8, ptr %19, i32 0, i32 0
  %21 = load i8, ptr %20, align 1, !tbaa !72
  %22 = zext i8 %21 to i64
  store i64 %22, ptr %2, align 8
  store i32 1, ptr %5, align 4
  br label %41

23:                                               ; preds = %1
  %24 = load ptr, ptr %3, align 8, !tbaa !11
  %25 = getelementptr inbounds i8, ptr %24, i64 -5
  %26 = getelementptr inbounds nuw %struct.sdshdr16, ptr %25, i32 0, i32 0
  %27 = load i16, ptr %26, align 1, !tbaa !314
  %28 = zext i16 %27 to i64
  store i64 %28, ptr %2, align 8
  store i32 1, ptr %5, align 4
  br label %41

29:                                               ; preds = %1
  %30 = load ptr, ptr %3, align 8, !tbaa !11
  %31 = getelementptr inbounds i8, ptr %30, i64 -9
  %32 = getelementptr inbounds nuw %struct.sdshdr32, ptr %31, i32 0, i32 0
  %33 = load i32, ptr %32, align 1, !tbaa !29
  %34 = zext i32 %33 to i64
  store i64 %34, ptr %2, align 8
  store i32 1, ptr %5, align 4
  br label %41

35:                                               ; preds = %1
  %36 = load ptr, ptr %3, align 8, !tbaa !11
  %37 = getelementptr inbounds i8, ptr %36, i64 -17
  %38 = getelementptr inbounds nuw %struct.sdshdr64, ptr %37, i32 0, i32 0
  %39 = load i64, ptr %38, align 1, !tbaa !5
  store i64 %39, ptr %2, align 8
  store i32 1, ptr %5, align 4
  br label %41

40:                                               ; preds = %1
  store i64 0, ptr %2, align 8
  store i32 1, ptr %5, align 4
  br label %41

41:                                               ; preds = %40, %35, %29, %23, %17, %12
  call void @llvm.lifetime.end.p0(i64 1, ptr %4) #15
  %42 = load i64, ptr %2, align 8
  ret i64 %42
}

; Function Attrs: inlinehint nounwind uwtable
define internal i64 @hfieldlen(ptr noundef %0) #10 {
  %2 = alloca ptr, align 8
  store ptr %0, ptr %2, align 8, !tbaa !11
  %3 = load ptr, ptr %2, align 8, !tbaa !11
  %4 = call i64 @mstrlen(ptr noundef %3)
  ret i64 %4
}

; Function Attrs: nounwind uwtable
define internal void @moduleScanKeyCallback(ptr noundef %0, ptr noundef %1) #0 {
  %3 = alloca ptr, align 8
  %4 = alloca ptr, align 8
  %5 = alloca ptr, align 8
  %6 = alloca ptr, align 8
  %7 = alloca ptr, align 8
  %8 = alloca ptr, align 8
  %9 = alloca ptr, align 8
  %10 = alloca ptr, align 8
  %11 = alloca i32, align 4
  %12 = alloca ptr, align 8
  store ptr %0, ptr %3, align 8, !tbaa !9
  store ptr %1, ptr %4, align 8, !tbaa !94
  call void @llvm.lifetime.start.p0(i64 8, ptr %5) #15
  %13 = load ptr, ptr %3, align 8, !tbaa !9
  store ptr %13, ptr %5, align 8, !tbaa !9
  call void @llvm.lifetime.start.p0(i64 8, ptr %6) #15
  %14 = load ptr, ptr %4, align 8, !tbaa !94
  %15 = call ptr @dictGetKey(ptr noundef %14)
  store ptr %15, ptr %6, align 8, !tbaa !11
  call void @llvm.lifetime.start.p0(i64 8, ptr %7) #15
  %16 = load ptr, ptr %5, align 8, !tbaa !9
  %17 = getelementptr inbounds nuw %struct.ScanKeyCBData, ptr %16, i32 0, i32 0
  %18 = load ptr, ptr %17, align 8, !tbaa !688
  %19 = getelementptr inbounds nuw %struct.RedisModuleKey, ptr %18, i32 0, i32 3
  %20 = load ptr, ptr %19, align 8, !tbaa !68
  store ptr %20, ptr %7, align 8, !tbaa !69
  call void @llvm.lifetime.start.p0(i64 8, ptr %8) #15
  store ptr null, ptr %8, align 8, !tbaa !69
  call void @llvm.lifetime.start.p0(i64 8, ptr %9) #15
  store ptr null, ptr %9, align 8, !tbaa !69
  %21 = load ptr, ptr %7, align 8, !tbaa !69
  %22 = load i32, ptr %21, align 8
  %23 = and i32 %22, 15
  %24 = icmp eq i32 %23, 2
  br i1 %24, label %25, label %26

25:                                               ; preds = %2
  store ptr null, ptr %9, align 8, !tbaa !69
  br label %72

26:                                               ; preds = %2
  %27 = load ptr, ptr %7, align 8, !tbaa !69
  %28 = load i32, ptr %27, align 8
  %29 = and i32 %28, 15
  %30 = icmp eq i32 %29, 4
  br i1 %30, label %31, label %58

31:                                               ; preds = %26
  call void @llvm.lifetime.start.p0(i64 8, ptr %10) #15
  %32 = load ptr, ptr %4, align 8, !tbaa !94
  %33 = call ptr @dictGetVal(ptr noundef %32)
  store ptr %33, ptr %10, align 8, !tbaa !11
  %34 = load ptr, ptr %5, align 8, !tbaa !9
  %35 = getelementptr inbounds nuw %struct.ScanKeyCBData, ptr %34, i32 0, i32 0
  %36 = load ptr, ptr %35, align 8, !tbaa !688
  %37 = getelementptr inbounds nuw %struct.RedisModuleKey, ptr %36, i32 0, i32 5
  %38 = load i32, ptr %37, align 8, !tbaa !66
  %39 = and i32 %38, 2097152
  %40 = icmp ne i32 %39, 0
  br i1 %40, label %46, label %41

41:                                               ; preds = %31
  %42 = load ptr, ptr %6, align 8, !tbaa !11
  %43 = call i32 @hfieldIsExpired(ptr noundef %42)
  %44 = icmp ne i32 %43, 0
  br i1 %44, label %45, label %46

45:                                               ; preds = %41
  store i32 1, ptr %11, align 4
  br label %55

46:                                               ; preds = %41, %31
  %47 = load ptr, ptr %6, align 8, !tbaa !11
  %48 = load ptr, ptr %6, align 8, !tbaa !11
  %49 = call i64 @hfieldlen(ptr noundef %48)
  %50 = call ptr @createStringObject(ptr noundef %47, i64 noundef %49)
  store ptr %50, ptr %8, align 8, !tbaa !69
  %51 = load ptr, ptr %10, align 8, !tbaa !11
  %52 = load ptr, ptr %10, align 8, !tbaa !11
  %53 = call i64 @sdslen(ptr noundef %52)
  %54 = call ptr @createStringObject(ptr noundef %51, i64 noundef %53)
  store ptr %54, ptr %9, align 8, !tbaa !69
  store i32 0, ptr %11, align 4
  br label %55

55:                                               ; preds = %46, %45
  call void @llvm.lifetime.end.p0(i64 8, ptr %10) #15
  %56 = load i32, ptr %11, align 4
  switch i32 %56, label %98 [
    i32 0, label %57
  ]

57:                                               ; preds = %55
  br label %71

58:                                               ; preds = %26
  %59 = load ptr, ptr %7, align 8, !tbaa !69
  %60 = load i32, ptr %59, align 8
  %61 = and i32 %60, 15
  %62 = icmp eq i32 %61, 3
  br i1 %62, label %63, label %70

63:                                               ; preds = %58
  call void @llvm.lifetime.start.p0(i64 8, ptr %12) #15
  %64 = load ptr, ptr %4, align 8, !tbaa !94
  %65 = call ptr @dictGetVal(ptr noundef %64)
  store ptr %65, ptr %12, align 8, !tbaa !318
  %66 = load ptr, ptr %12, align 8, !tbaa !318
  %67 = load double, ptr %66, align 8, !tbaa !302
  %68 = fpext double %67 to x86_fp80
  %69 = call ptr @createStringObjectFromLongDouble(x86_fp80 noundef %68, i32 noundef 0)
  store ptr %69, ptr %9, align 8, !tbaa !69
  call void @llvm.lifetime.end.p0(i64 8, ptr %12) #15
  br label %70

70:                                               ; preds = %63, %58
  br label %71

71:                                               ; preds = %70, %57
  br label %72

72:                                               ; preds = %71, %25
  %73 = load ptr, ptr %8, align 8, !tbaa !69
  %74 = icmp ne ptr %73, null
  br i1 %74, label %80, label %75

75:                                               ; preds = %72
  %76 = load ptr, ptr %6, align 8, !tbaa !11
  %77 = load ptr, ptr %6, align 8, !tbaa !11
  %78 = call i64 @sdslen(ptr noundef %77)
  %79 = call ptr @createStringObject(ptr noundef %76, i64 noundef %78)
  store ptr %79, ptr %8, align 8, !tbaa !69
  br label %80

80:                                               ; preds = %75, %72
  %81 = load ptr, ptr %5, align 8, !tbaa !9
  %82 = getelementptr inbounds nuw %struct.ScanKeyCBData, ptr %81, i32 0, i32 2
  %83 = load ptr, ptr %82, align 8, !tbaa !691
  %84 = load ptr, ptr %5, align 8, !tbaa !9
  %85 = getelementptr inbounds nuw %struct.ScanKeyCBData, ptr %84, i32 0, i32 0
  %86 = load ptr, ptr %85, align 8, !tbaa !688
  %87 = load ptr, ptr %8, align 8, !tbaa !69
  %88 = load ptr, ptr %9, align 8, !tbaa !69
  %89 = load ptr, ptr %5, align 8, !tbaa !9
  %90 = getelementptr inbounds nuw %struct.ScanKeyCBData, ptr %89, i32 0, i32 1
  %91 = load ptr, ptr %90, align 8, !tbaa !690
  call void %83(ptr noundef %86, ptr noundef %87, ptr noundef %88, ptr noundef %91)
  %92 = load ptr, ptr %8, align 8, !tbaa !69
  call void @decrRefCount(ptr noundef %92)
  %93 = load ptr, ptr %9, align 8, !tbaa !69
  %94 = icmp ne ptr %93, null
  br i1 %94, label %95, label %97

95:                                               ; preds = %80
  %96 = load ptr, ptr %9, align 8, !tbaa !69
  call void @decrRefCount(ptr noundef %96)
  br label %97

97:                                               ; preds = %95, %80
  store i32 0, ptr %11, align 4
  br label %98

98:                                               ; preds = %97, %55
  call void @llvm.lifetime.end.p0(i64 8, ptr %9) #15
  call void @llvm.lifetime.end.p0(i64 8, ptr %8) #15
  call void @llvm.lifetime.end.p0(i64 8, ptr %7) #15
  call void @llvm.lifetime.end.p0(i64 8, ptr %6) #15
  call void @llvm.lifetime.end.p0(i64 8, ptr %5) #15
  %99 = load i32, ptr %11, align 4
  switch i32 %99, label %101 [
    i32 0, label %100
    i32 1, label %100
  ]

100:                                              ; preds = %98, %98
  ret void

101:                                              ; preds = %98
  unreachable
}