; Function Attrs: nounwind uwtable
define internal void @moduleScanKeyCallback(ptr noundef readonly captures(none) %0, ptr noundef %1) #0 {
  %3 = tail call ptr @dictGetKey(ptr noundef %1) #35
  %4 = load ptr, ptr %0, align 8, !tbaa !582
  %5 = getelementptr inbounds nuw i8, ptr %4, i64 24
  %6 = load ptr, ptr %5, align 8, !tbaa !57
  %7 = load i32, ptr %6, align 8
  %8 = and i32 %7, 15
  switch i32 %8, label %.thread38 [
    i32 3, label %42
    i32 4, label %9
  ]

9:                                                ; preds = %2
  %10 = tail call ptr @dictGetVal(ptr noundef %1) #35
  %11 = load ptr, ptr %0, align 8, !tbaa !582
  %12 = getelementptr inbounds nuw i8, ptr %11, i64 40
  %13 = load i32, ptr %12, align 8, !tbaa !55
  %14 = and i32 %13, 2097152
  %.not = icmp eq i32 %14, 0
  br i1 %.not, label %15, label %17

15:                                               ; preds = %9
  %16 = tail call i32 @hfieldIsExpired(ptr noundef %3) #35
  %.not30 = icmp eq i32 %16, 0
  br i1 %.not30, label %17, label %79

17:                                               ; preds = %15, %9
  %18 = tail call i64 @mstrlen(ptr noundef %3) #35
  %19 = tail call ptr @createStringObject(ptr noundef %3, i64 noundef %18) #35
  %20 = getelementptr inbounds i8, ptr %10, i64 -1
  %21 = load i8, ptr %20, align 1, !tbaa !60
  %22 = zext i8 %21 to i32
  %23 = and i32 %22, 7
  switch i32 %23, label %47 [
    i32 0, label %24
    i32 1, label %27
    i32 2, label %31
    i32 3, label %35
    i32 4, label %39
  ]

24:                                               ; preds = %17
  %25 = lshr i32 %22, 3
  %26 = zext nneg i32 %25 to i64
  br label %47

27:                                               ; preds = %17
  %28 = getelementptr inbounds i8, ptr %10, i64 -3
  %29 = load i8, ptr %28, align 1, !tbaa !60
  %30 = zext i8 %29 to i64
  br label %47

31:                                               ; preds = %17
  %32 = getelementptr inbounds i8, ptr %10, i64 -5
  %33 = load i16, ptr %32, align 1, !tbaa !270
  %34 = zext i16 %33 to i64
  br label %47

35:                                               ; preds = %17
  %36 = getelementptr inbounds i8, ptr %10, i64 -9
  %37 = load i32, ptr %36, align 1, !tbaa !22
  %38 = zext i32 %37 to i64
  br label %47

39:                                               ; preds = %17
  %40 = getelementptr inbounds i8, ptr %10, i64 -17
  %41 = load i64, ptr %40, align 1, !tbaa !24
  br label %47

42:                                               ; preds = %2
  %43 = tail call ptr @dictGetVal(ptr noundef %1) #35
  %44 = load double, ptr %43, align 8, !tbaa !344
  %45 = fpext double %44 to x86_fp80
  %46 = tail call ptr @createStringObjectFromLongDouble(x86_fp80 noundef %45, i32 noundef 0) #35
  br label %.thread38

47:                                               ; preds = %39, %35, %31, %27, %24, %17
  %.0.i = phi i64 [ %41, %39 ], [ %38, %35 ], [ %34, %31 ], [ %30, %27 ], [ %26, %24 ], [ 0, %17 ]
  %48 = tail call ptr @createStringObject(ptr noundef nonnull %10, i64 noundef %.0.i) #35
  %.not31 = icmp eq ptr %19, null
  br i1 %.not31, label %.thread38, label %72

.thread38:                                        ; preds = %2, %42, %47
  %.02743 = phi ptr [ %48, %47 ], [ null, %2 ], [ %46, %42 ]
  %49 = getelementptr inbounds i8, ptr %3, i64 -1
  %50 = load i8, ptr %49, align 1, !tbaa !60
  %51 = zext i8 %50 to i32
  %52 = and i32 %51, 7
  switch i32 %52, label %sdslen.exit34 [
    i32 0, label %53
    i32 1, label %56
    i32 2, label %60
    i32 3, label %64
    i32 4, label %68
  ]

53:                                               ; preds = %.thread38
  %54 = lshr i32 %51, 3
  %55 = zext nneg i32 %54 to i64
  br label %sdslen.exit34

56:                                               ; preds = %.thread38
  %57 = getelementptr inbounds i8, ptr %3, i64 -3
  %58 = load i8, ptr %57, align 1, !tbaa !60
  %59 = zext i8 %58 to i64
  br label %sdslen.exit34

60:                                               ; preds = %.thread38
  %61 = getelementptr inbounds i8, ptr %3, i64 -5
  %62 = load i16, ptr %61, align 1, !tbaa !270
  %63 = zext i16 %62 to i64
  br label %sdslen.exit34

64:                                               ; preds = %.thread38
  %65 = getelementptr inbounds i8, ptr %3, i64 -9
  %66 = load i32, ptr %65, align 1, !tbaa !22
  %67 = zext i32 %66 to i64
  br label %sdslen.exit34

68:                                               ; preds = %.thread38
  %69 = getelementptr inbounds i8, ptr %3, i64 -17
  %70 = load i64, ptr %69, align 1, !tbaa !24
  br label %sdslen.exit34

sdslen.exit34:                                    ; preds = %.thread38, %53, %56, %60, %64, %68
  %.0.i33 = phi i64 [ %70, %68 ], [ %67, %64 ], [ %63, %60 ], [ %59, %56 ], [ %55, %53 ], [ 0, %.thread38 ]
  %71 = tail call ptr @createStringObject(ptr noundef nonnull %3, i64 noundef %.0.i33) #35
  br label %72

72:                                               ; preds = %sdslen.exit34, %47
  %.02742 = phi ptr [ %48, %47 ], [ %.02743, %sdslen.exit34 ]
  %.2 = phi ptr [ %19, %47 ], [ %71, %sdslen.exit34 ]
  %73 = getelementptr inbounds nuw i8, ptr %0, i64 16
  %74 = load ptr, ptr %73, align 8, !tbaa !586
  %75 = load ptr, ptr %0, align 8, !tbaa !582
  %76 = getelementptr inbounds nuw i8, ptr %0, i64 8
  %77 = load ptr, ptr %76, align 8, !tbaa !585
  tail call void %74(ptr noundef %75, ptr noundef %.2, ptr noundef %.02742, ptr noundef %77) #35
  tail call void @decrRefCount(ptr noundef %.2) #35
  %.not32 = icmp eq ptr %.02742, null
  br i1 %.not32, label %79, label %78

78:                                               ; preds = %72
  tail call void @decrRefCount(ptr noundef nonnull %.02742) #35
  br label %79

79:                                               ; preds = %15, %72, %78
  ret void
}